SF:/Users/mihaieremia/GitHub/mx-8004/identity-registry/src/events.rs
FN:5,_RNvYINtNtNtCs41rs7w7JgRJ_13multiversx_sc13contract_base22universal_contract_obj20UniversalContractObjINtNtNtNtCsbvjT3dqqyJm_22multiversx_sc_scenario3api7impl_vh12vm_hooks_api10VMHooksApiNtNtB1G_9debug_api15DebugApiBackendEENtNtCs8ifECJe6cHB_17identity_registry6events16EndpointWrappers4callCs5mzhWYvWCS1_13mx_8004_tests
FNDA:0,_RNvYINtNtNtCs41rs7w7JgRJ_13multiversx_sc13contract_base22universal_contract_obj20UniversalContractObjINtNtNtNtCsbvjT3dqqyJm_22multiversx_sc_scenario3api7impl_vh12vm_hooks_api10VMHooksApiNtNtB1G_9debug_api15DebugApiBackendEENtNtCs8ifECJe6cHB_17identity_registry6events16EndpointWrappers4callCs5mzhWYvWCS1_13mx_8004_tests
FNF:1
FNH:0
DA:5,0
BRF:0
BRH:0
LF:1
LH:0
end_of_record
SF:/Users/mihaieremia/GitHub/mx-8004/identity-registry/src/lib.rs
FN:17,_RNvYINtNtNtCs41rs7w7JgRJ_13multiversx_sc13contract_base22universal_contract_obj20UniversalContractObjINtNtNtNtCsbvjT3dqqyJm_22multiversx_sc_scenario3api7impl_vh12vm_hooks_api10VMHooksApiNtNtB1G_9debug_api15DebugApiBackendEENtCs8ifECJe6cHB_17identity_registry16EndpointWrappers4callCs5mzhWYvWCS1_13mx_8004_tests
FN:34,_RNvYINtNtNtCs41rs7w7JgRJ_13multiversx_sc13contract_base22universal_contract_obj20UniversalContractObjINtNtNtNtCsbvjT3dqqyJm_22multiversx_sc_scenario3api7impl_vh12vm_hooks_api10VMHooksApiNtNtB1G_9debug_api15DebugApiBackendEENtCs8ifECJe6cHB_17identity_registry16IdentityRegistry11issue_tokenCs5mzhWYvWCS1_13mx_8004_tests
FN:167,_RNvYINtNtNtCs41rs7w7JgRJ_13multiversx_sc13contract_base22universal_contract_obj20UniversalContractObjINtNtNtNtCsbvjT3dqqyJm_22multiversx_sc_scenario3api7impl_vh12vm_hooks_api10VMHooksApiNtNtB1G_9debug_api15DebugApiBackendEENtCs8ifECJe6cHB_17identity_registry16IdentityRegistry12set_metadataCs5mzhWYvWCS1_13mx_8004_tests
FN:123,_RNvYINtNtNtCs41rs7w7JgRJ_13multiversx_sc13contract_base22universal_contract_obj20UniversalContractObjINtNtNtNtCsbvjT3dqqyJm_22multiversx_sc_scenario3api7impl_vh12vm_hooks_api10VMHooksApiNtNtB1G_9debug_api15DebugApiBackendEENtCs8ifECJe6cHB_17identity_registry16IdentityRegistry12update_agentCs5mzhWYvWCS1_13mx_8004_tests
FN:58,_RNvYINtNtNtCs41rs7w7JgRJ_13multiversx_sc13contract_base22universal_contract_obj20UniversalContractObjINtNtNtNtCsbvjT3dqqyJm_22multiversx_sc_scenario3api7impl_vh12vm_hooks_api10VMHooksApiNtNtB1G_9debug_api15DebugApiBackendEENtCs8ifECJe6cHB_17identity_registry16IdentityRegistry14register_agentCs5mzhWYvWCS1_13mx_8004_tests
FN:189,_RNvYINtNtNtCs41rs7w7JgRJ_13multiversx_sc13contract_base22universal_contract_obj20UniversalContractObjINtNtNtNtCsbvjT3dqqyJm_22multiversx_sc_scenario3api7impl_vh12vm_hooks_api10VMHooksApiNtNtB1G_9debug_api15DebugApiBackendEENtCs8ifECJe6cHB_17identity_registry16IdentityRegistry15remove_metadataCs5mzhWYvWCS1_13mx_8004_tests
FN:201,_RNvYINtNtNtCs41rs7w7JgRJ_13multiversx_sc13contract_base22universal_contract_obj20UniversalContractObjINtNtNtNtCsbvjT3dqqyJm_22multiversx_sc_scenario3api7impl_vh12vm_hooks_api10VMHooksApiNtNtB1G_9debug_api15DebugApiBackendEENtCs8ifECJe6cHB_17identity_registry16IdentityRegistry22remove_service_configsCs5mzhWYvWCS1_13mx_8004_tests
FN:180,_RNvYINtNtNtCs41rs7w7JgRJ_13multiversx_sc13contract_base22universal_contract_obj20UniversalContractObjINtNtNtNtCsbvjT3dqqyJm_22multiversx_sc_scenario3api7impl_vh12vm_hooks_api10VMHooksApiNtNtB1G_9debug_api15DebugApiBackendEENtCs8ifECJe6cHB_17identity_registry16IdentityRegistry28set_service_configs_endpointCs5mzhWYvWCS1_13mx_8004_tests
FNDA:50,_RNvYINtNtNtCs41rs7w7JgRJ_13multiversx_sc13contract_base22universal_contract_obj20UniversalContractObjINtNtNtNtCsbvjT3dqqyJm_22multiversx_sc_scenario3api7impl_vh12vm_hooks_api10VMHooksApiNtNtB1G_9debug_api15DebugApiBackendEENtCs8ifECJe6cHB_17identity_registry16EndpointWrappers4callCs5mzhWYvWCS1_13mx_8004_tests
FNDA:1,_RNvYINtNtNtCs41rs7w7JgRJ_13multiversx_sc13contract_base22universal_contract_obj20UniversalContractObjINtNtNtNtCsbvjT3dqqyJm_22multiversx_sc_scenario3api7impl_vh12vm_hooks_api10VMHooksApiNtNtB1G_9debug_api15DebugApiBackendEENtCs8ifECJe6cHB_17identity_registry16IdentityRegistry11issue_tokenCs5mzhWYvWCS1_13mx_8004_tests
FNDA:2,_RNvYINtNtNtCs41rs7w7JgRJ_13multiversx_sc13contract_base22universal_contract_obj20UniversalContractObjINtNtNtNtCsbvjT3dqqyJm_22multiversx_sc_scenario3api7impl_vh12vm_hooks_api10VMHooksApiNtNtB1G_9debug_api15DebugApiBackendEENtCs8ifECJe6cHB_17identity_registry16IdentityRegistry12set_metadataCs5mzhWYvWCS1_13mx_8004_tests
FNDA:2,_RNvYINtNtNtCs41rs7w7JgRJ_13multiversx_sc13contract_base22universal_contract_obj20UniversalContractObjINtNtNtNtCsbvjT3dqqyJm_22multiversx_sc_scenario3api7impl_vh12vm_hooks_api10VMHooksApiNtNtB1G_9debug_api15DebugApiBackendEENtCs8ifECJe6cHB_17identity_registry16IdentityRegistry12update_agentCs5mzhWYvWCS1_13mx_8004_tests
FNDA:39,_RNvYINtNtNtCs41rs7w7JgRJ_13multiversx_sc13contract_base22universal_contract_obj20UniversalContractObjINtNtNtNtCsbvjT3dqqyJm_22multiversx_sc_scenario3api7impl_vh12vm_hooks_api10VMHooksApiNtNtB1G_9debug_api15DebugApiBackendEENtCs8ifECJe6cHB_17identity_registry16IdentityRegistry14register_agentCs5mzhWYvWCS1_13mx_8004_tests
FNDA:2,_RNvYINtNtNtCs41rs7w7JgRJ_13multiversx_sc13contract_base22universal_contract_obj20UniversalContractObjINtNtNtNtCsbvjT3dqqyJm_22multiversx_sc_scenario3api7impl_vh12vm_hooks_api10VMHooksApiNtNtB1G_9debug_api15DebugApiBackendEENtCs8ifECJe6cHB_17identity_registry16IdentityRegistry15remove_metadataCs5mzhWYvWCS1_13mx_8004_tests
FNDA:2,_RNvYINtNtNtCs41rs7w7JgRJ_13multiversx_sc13contract_base22universal_contract_obj20UniversalContractObjINtNtNtNtCsbvjT3dqqyJm_22multiversx_sc_scenario3api7impl_vh12vm_hooks_api10VMHooksApiNtNtB1G_9debug_api15DebugApiBackendEENtCs8ifECJe6cHB_17identity_registry16IdentityRegistry22remove_service_configsCs5mzhWYvWCS1_13mx_8004_tests
FNDA:2,_RNvYINtNtNtCs41rs7w7JgRJ_13multiversx_sc13contract_base22universal_contract_obj20UniversalContractObjINtNtNtNtCsbvjT3dqqyJm_22multiversx_sc_scenario3api7impl_vh12vm_hooks_api10VMHooksApiNtNtB1G_9debug_api15DebugApiBackendEENtCs8ifECJe6cHB_17identity_registry16IdentityRegistry28set_service_configs_endpointCs5mzhWYvWCS1_13mx_8004_tests
FNF:8
FNH:8
DA:17,50
DA:34,1
DA:35,1
DA:36,0
DA:38,0
DA:39,0
DA:40,0
DA:41,0
DA:42,0
DA:44,0
DA:58,39
DA:59,39
DA:61,39
DA:62,39
DA:63,39
DA:67,38
DA:68,38
DA:69,38
DA:70,38
DA:73,38
DA:74,38
DA:75,38
DA:76,38
DA:77,38
DA:78,38
DA:79,38
DA:80,38
DA:84,38
DA:85,38
DA:88,38
DA:90,38
DA:92,38
DA:93,38
DA:94,38
DA:95,38
DA:96,38
DA:97,38
DA:98,38
DA:102,38
DA:103,38
DA:104,38
DA:105,38
DA:106,38
DA:107,38
DA:109,38
DA:123,2
DA:124,2
DA:126,2
DA:127,2
DA:128,2
DA:130,2
DA:131,2
DA:132,2
DA:133,2
DA:135,2
DA:136,2
DA:137,2
DA:138,2
DA:140,2
DA:141,2
DA:142,2
DA:145,2
DA:146,1
DA:147,1
DA:148,2
DA:149,1
DA:150,1
DA:153,2
DA:154,2
DA:155,2
DA:156,2
DA:158,2
DA:167,2
DA:168,2
DA:169,2
DA:170,2
DA:171,2
DA:180,2
DA:181,2
DA:182,2
DA:183,2
DA:184,2
DA:189,2
DA:190,2
DA:191,2
DA:192,2
DA:193,2
DA:194,0
DA:195,0
DA:196,2
DA:201,2
DA:202,2
DA:203,2
DA:204,2
DA:205,2
DA:206,0
DA:207,0
DA:208,2
BRF:0
BRH:0
LF:98
LH:87
end_of_record
SF:/Users/mihaieremia/GitHub/mx-8004/identity-registry/src/storage.rs
FN:6,_RNvYINtNtNtCs41rs7w7JgRJ_13multiversx_sc13contract_base22universal_contract_obj20UniversalContractObjINtNtNtNtCsbvjT3dqqyJm_22multiversx_sc_scenario3api7impl_vh12vm_hooks_api10VMHooksApiNtNtB1G_9debug_api15DebugApiBackendEENtNtCs8ifECJe6cHB_17identity_registry7storage16EndpointWrappers4callCs5mzhWYvWCS1_13mx_8004_tests
FNDA:0,_RNvYINtNtNtCs41rs7w7JgRJ_13multiversx_sc13contract_base22universal_contract_obj20UniversalContractObjINtNtNtNtCsbvjT3dqqyJm_22multiversx_sc_scenario3api7impl_vh12vm_hooks_api10VMHooksApiNtNtB1G_9debug_api15DebugApiBackendEENtNtCs8ifECJe6cHB_17identity_registry7storage16EndpointWrappers4callCs5mzhWYvWCS1_13mx_8004_tests
FNF:1
FNH:0
DA:6,0
BRF:0
BRH:0
LF:1
LH:0
end_of_record
SF:/Users/mihaieremia/GitHub/mx-8004/identity-registry/src/utils.rs
FN:19,_RNvYINtNtNtCs41rs7w7JgRJ_13multiversx_sc13contract_base22universal_contract_obj20UniversalContractObjINtNtNtNtCsbvjT3dqqyJm_22multiversx_sc_scenario3api7impl_vh12vm_hooks_api10VMHooksApiNtNtB1G_9debug_api15DebugApiBackendEENtNtCs8ifECJe6cHB_17identity_registry5utils11UtilsModule13sync_metadataCs5mzhWYvWCS1_13mx_8004_tests
FN:8,_RNvYINtNtNtCs41rs7w7JgRJ_13multiversx_sc13contract_base22universal_contract_obj20UniversalContractObjINtNtNtNtCsbvjT3dqqyJm_22multiversx_sc_scenario3api7impl_vh12vm_hooks_api10VMHooksApiNtNtB1G_9debug_api15DebugApiBackendEENtNtCs8ifECJe6cHB_17identity_registry5utils11UtilsModule19require_agent_ownerCs5mzhWYvWCS1_13mx_8004_tests
FN:29,_RNvYINtNtNtCs41rs7w7JgRJ_13multiversx_sc13contract_base22universal_contract_obj20UniversalContractObjINtNtNtNtCsbvjT3dqqyJm_22multiversx_sc_scenario3api7impl_vh12vm_hooks_api10VMHooksApiNtNtB1G_9debug_api15DebugApiBackendEENtNtCs8ifECJe6cHB_17identity_registry5utils11UtilsModule20sync_service_configsCs5mzhWYvWCS1_13mx_8004_tests
FN:6,_RNvYINtNtNtCs41rs7w7JgRJ_13multiversx_sc13contract_base22universal_contract_obj20UniversalContractObjINtNtNtNtCsbvjT3dqqyJm_22multiversx_sc_scenario3api7impl_vh12vm_hooks_api10VMHooksApiNtNtB1G_9debug_api15DebugApiBackendEENtNtCs8ifECJe6cHB_17identity_registry5utils16EndpointWrappers4callCs5mzhWYvWCS1_13mx_8004_tests
FNDA:40,_RNvYINtNtNtCs41rs7w7JgRJ_13multiversx_sc13contract_base22universal_contract_obj20UniversalContractObjINtNtNtNtCsbvjT3dqqyJm_22multiversx_sc_scenario3api7impl_vh12vm_hooks_api10VMHooksApiNtNtB1G_9debug_api15DebugApiBackendEENtNtCs8ifECJe6cHB_17identity_registry5utils11UtilsModule13sync_metadataCs5mzhWYvWCS1_13mx_8004_tests
FNDA:8,_RNvYINtNtNtCs41rs7w7JgRJ_13multiversx_sc13contract_base22universal_contract_obj20UniversalContractObjINtNtNtNtCsbvjT3dqqyJm_22multiversx_sc_scenario3api7impl_vh12vm_hooks_api10VMHooksApiNtNtB1G_9debug_api15DebugApiBackendEENtNtCs8ifECJe6cHB_17identity_registry5utils11UtilsModule19require_agent_ownerCs5mzhWYvWCS1_13mx_8004_tests
FNDA:40,_RNvYINtNtNtCs41rs7w7JgRJ_13multiversx_sc13contract_base22universal_contract_obj20UniversalContractObjINtNtNtNtCsbvjT3dqqyJm_22multiversx_sc_scenario3api7impl_vh12vm_hooks_api10VMHooksApiNtNtB1G_9debug_api15DebugApiBackendEENtNtCs8ifECJe6cHB_17identity_registry5utils11UtilsModule20sync_service_configsCs5mzhWYvWCS1_13mx_8004_tests
FNDA:0,_RNvYINtNtNtCs41rs7w7JgRJ_13multiversx_sc13contract_base22universal_contract_obj20UniversalContractObjINtNtNtNtCsbvjT3dqqyJm_22multiversx_sc_scenario3api7impl_vh12vm_hooks_api10VMHooksApiNtNtB1G_9debug_api15DebugApiBackendEENtNtCs8ifECJe6cHB_17identity_registry5utils16EndpointWrappers4callCs5mzhWYvWCS1_13mx_8004_tests
FNF:4
FNH:3
DA:6,0
DA:8,8
DA:9,8
DA:10,8
DA:11,8
DA:12,4
DA:19,40
DA:20,50
DA:21,10
DA:22,10
DA:29,40
DA:30,51
DA:31,11
DA:32,11
DA:33,11
DA:34,11
DA:35,11
BRF:0
BRH:0
LF:17
LH:16
end_of_record
SF:/Users/mihaieremia/GitHub/mx-8004/identity-registry/src/views.rs
FN:19,_RNvYINtNtNtCs41rs7w7JgRJ_13multiversx_sc13contract_base22universal_contract_obj20UniversalContractObjINtNtNtNtCsbvjT3dqqyJm_22multiversx_sc_scenario3api7impl_vh12vm_hooks_api10VMHooksApiNtNtB1G_9debug_api15DebugApiBackendEENtNtCs8ifECJe6cHB_17identity_registry5views11ViewsModule12get_metadataCs5mzhWYvWCS1_13mx_8004_tests
FN:14,_RNvYINtNtNtCs41rs7w7JgRJ_13multiversx_sc13contract_base22universal_contract_obj20UniversalContractObjINtNtNtNtCsbvjT3dqqyJm_22multiversx_sc_scenario3api7impl_vh12vm_hooks_api10VMHooksApiNtNtB1G_9debug_api15DebugApiBackendEENtNtCs8ifECJe6cHB_17identity_registry5views11ViewsModule15get_agent_ownerCs5mzhWYvWCS1_13mx_8004_tests
FN:33,_RNvYINtNtNtCs41rs7w7JgRJ_13multiversx_sc13contract_base22universal_contract_obj20UniversalContractObjINtNtNtNtCsbvjT3dqqyJm_22multiversx_sc_scenario3api7impl_vh12vm_hooks_api10VMHooksApiNtNtB1G_9debug_api15DebugApiBackendEENtNtCs8ifECJe6cHB_17identity_registry5views11ViewsModule24get_agent_service_configCs5mzhWYvWCS1_13mx_8004_tests
FN:9,_RNvYINtNtNtCs41rs7w7JgRJ_13multiversx_sc13contract_base22universal_contract_obj20UniversalContractObjINtNtNtNtCsbvjT3dqqyJm_22multiversx_sc_scenario3api7impl_vh12vm_hooks_api10VMHooksApiNtNtB1G_9debug_api15DebugApiBackendEENtNtCs8ifECJe6cHB_17identity_registry5views11ViewsModule9get_agentCs5mzhWYvWCS1_13mx_8004_tests
FN:6,_RNvYINtNtNtCs41rs7w7JgRJ_13multiversx_sc13contract_base22universal_contract_obj20UniversalContractObjINtNtNtNtCsbvjT3dqqyJm_22multiversx_sc_scenario3api7impl_vh12vm_hooks_api10VMHooksApiNtNtB1G_9debug_api15DebugApiBackendEENtNtCs8ifECJe6cHB_17identity_registry5views16EndpointWrappers4callCs5mzhWYvWCS1_13mx_8004_tests
FNDA:5,_RNvYINtNtNtCs41rs7w7JgRJ_13multiversx_sc13contract_base22universal_contract_obj20UniversalContractObjINtNtNtNtCsbvjT3dqqyJm_22multiversx_sc_scenario3api7impl_vh12vm_hooks_api10VMHooksApiNtNtB1G_9debug_api15DebugApiBackendEENtNtCs8ifECJe6cHB_17identity_registry5views11ViewsModule12get_metadataCs5mzhWYvWCS1_13mx_8004_tests
FNDA:3,_RNvYINtNtNtCs41rs7w7JgRJ_13multiversx_sc13contract_base22universal_contract_obj20UniversalContractObjINtNtNtNtCsbvjT3dqqyJm_22multiversx_sc_scenario3api7impl_vh12vm_hooks_api10VMHooksApiNtNtB1G_9debug_api15DebugApiBackendEENtNtCs8ifECJe6cHB_17identity_registry5views11ViewsModule15get_agent_ownerCs5mzhWYvWCS1_13mx_8004_tests
FNDA:5,_RNvYINtNtNtCs41rs7w7JgRJ_13multiversx_sc13contract_base22universal_contract_obj20UniversalContractObjINtNtNtNtCsbvjT3dqqyJm_22multiversx_sc_scenario3api7impl_vh12vm_hooks_api10VMHooksApiNtNtB1G_9debug_api15DebugApiBackendEENtNtCs8ifECJe6cHB_17identity_registry5views11ViewsModule24get_agent_service_configCs5mzhWYvWCS1_13mx_8004_tests
FNDA:1,_RNvYINtNtNtCs41rs7w7JgRJ_13multiversx_sc13contract_base22universal_contract_obj20UniversalContractObjINtNtNtNtCsbvjT3dqqyJm_22multiversx_sc_scenario3api7impl_vh12vm_hooks_api10VMHooksApiNtNtB1G_9debug_api15DebugApiBackendEENtNtCs8ifECJe6cHB_17identity_registry5views11ViewsModule9get_agentCs5mzhWYvWCS1_13mx_8004_tests
FNDA:0,_RNvYINtNtNtCs41rs7w7JgRJ_13multiversx_sc13contract_base22universal_contract_obj20UniversalContractObjINtNtNtNtCsbvjT3dqqyJm_22multiversx_sc_scenario3api7impl_vh12vm_hooks_api10VMHooksApiNtNtB1G_9debug_api15DebugApiBackendEENtNtCs8ifECJe6cHB_17identity_registry5views16EndpointWrappers4callCs5mzhWYvWCS1_13mx_8004_tests
FNF:5
FNH:4
DA:6,0
DA:9,1
DA:10,1
DA:14,3
DA:15,3
DA:19,5
DA:20,5
DA:21,5
DA:22,4
DA:24,1
DA:33,5
DA:34,5
DA:35,5
DA:36,4
DA:37,4
DA:38,4
DA:39,4
DA:40,4
DA:42,1
BRF:0
BRH:0
LF:19
LH:18
end_of_record
SF:/Users/mihaieremia/GitHub/mx-8004/reputation-registry/src/config.rs
FN:9,_RNvYINtNtNtCs41rs7w7JgRJ_13multiversx_sc13contract_base22universal_contract_obj20UniversalContractObjINtNtNtNtCsbvjT3dqqyJm_22multiversx_sc_scenario3api7impl_vh12vm_hooks_api10VMHooksApiNtNtB1G_9debug_api15DebugApiBackendEENtNtCsih7Fp5FNncq_19reputation_registry6config12ConfigModule29set_identity_contract_addressCs5mzhWYvWCS1_13mx_8004_tests
FN:15,_RNvYINtNtNtCs41rs7w7JgRJ_13multiversx_sc13contract_base22universal_contract_obj20UniversalContractObjINtNtNtNtCsbvjT3dqqyJm_22multiversx_sc_scenario3api7impl_vh12vm_hooks_api10VMHooksApiNtNtB1G_9debug_api15DebugApiBackendEENtNtCsih7Fp5FNncq_19reputation_registry6config12ConfigModule31set_validation_contract_addressCs5mzhWYvWCS1_13mx_8004_tests
FN:3,_RNvYINtNtNtCs41rs7w7JgRJ_13multiversx_sc13contract_base22universal_contract_obj20UniversalContractObjINtNtNtNtCsbvjT3dqqyJm_22multiversx_sc_scenario3api7impl_vh12vm_hooks_api10VMHooksApiNtNtB1G_9debug_api15DebugApiBackendEENtNtCsih7Fp5FNncq_19reputation_registry6config16EndpointWrappers4callCs5mzhWYvWCS1_13mx_8004_tests
FNDA:1,_RNvYINtNtNtCs41rs7w7JgRJ_13multiversx_sc13contract_base22universal_contract_obj20UniversalContractObjINtNtNtNtCsbvjT3dqqyJm_22multiversx_sc_scenario3api7impl_vh12vm_hooks_api10VMHooksApiNtNtB1G_9debug_api15DebugApiBackendEENtNtCsih7Fp5FNncq_19reputation_registry6config12ConfigModule29set_identity_contract_addressCs5mzhWYvWCS1_13mx_8004_tests
FNDA:1,_RNvYINtNtNtCs41rs7w7JgRJ_13multiversx_sc13contract_base22universal_contract_obj20UniversalContractObjINtNtNtNtCsbvjT3dqqyJm_22multiversx_sc_scenario3api7impl_vh12vm_hooks_api10VMHooksApiNtNtB1G_9debug_api15DebugApiBackendEENtNtCsih7Fp5FNncq_19reputation_registry6config12ConfigModule31set_validation_contract_addressCs5mzhWYvWCS1_13mx_8004_tests
FNDA:0,_RNvYINtNtNtCs41rs7w7JgRJ_13multiversx_sc13contract_base22universal_contract_obj20UniversalContractObjINtNtNtNtCsbvjT3dqqyJm_22multiversx_sc_scenario3api7impl_vh12vm_hooks_api10VMHooksApiNtNtB1G_9debug_api15DebugApiBackendEENtNtCsih7Fp5FNncq_19reputation_registry6config16EndpointWrappers4callCs5mzhWYvWCS1_13mx_8004_tests
FNF:3
FNH:2
DA:3,0
DA:9,1
DA:10,1
DA:15,1
DA:16,1
BRF:0
BRH:0
LF:5
LH:4
end_of_record
SF:/Users/mihaieremia/GitHub/mx-8004/reputation-registry/src/events.rs
FN:3,_RNvYINtNtNtCs41rs7w7JgRJ_13multiversx_sc13contract_base22universal_contract_obj20UniversalContractObjINtNtNtNtCsbvjT3dqqyJm_22multiversx_sc_scenario3api7impl_vh12vm_hooks_api10VMHooksApiNtNtB1G_9debug_api15DebugApiBackendEENtNtCsih7Fp5FNncq_19reputation_registry6events16EndpointWrappers4callCs5mzhWYvWCS1_13mx_8004_tests
FNDA:0,_RNvYINtNtNtCs41rs7w7JgRJ_13multiversx_sc13contract_base22universal_contract_obj20UniversalContractObjINtNtNtNtCsbvjT3dqqyJm_22multiversx_sc_scenario3api7impl_vh12vm_hooks_api10VMHooksApiNtNtB1G_9debug_api15DebugApiBackendEENtNtCsih7Fp5FNncq_19reputation_registry6events16EndpointWrappers4callCs5mzhWYvWCS1_13mx_8004_tests
FNF:1
FNH:0
DA:3,0
BRF:0
BRH:0
LF:1
LH:0
end_of_record
SF:/Users/mihaieremia/GitHub/mx-8004/reputation-registry/src/lib.rs
FN:15,_RNvYINtNtNtCs41rs7w7JgRJ_13multiversx_sc13contract_base22universal_contract_obj20UniversalContractObjINtNtNtNtCsbvjT3dqqyJm_22multiversx_sc_scenario3api7impl_vh12vm_hooks_api10VMHooksApiNtNtB1G_9debug_api15DebugApiBackendEENtCsih7Fp5FNncq_19reputation_registry16EndpointWrappers4callCs5mzhWYvWCS1_13mx_8004_tests
FN:88,_RNvYINtNtNtCs41rs7w7JgRJ_13multiversx_sc13contract_base22universal_contract_obj20UniversalContractObjINtNtNtNtCsbvjT3dqqyJm_22multiversx_sc_scenario3api7impl_vh12vm_hooks_api10VMHooksApiNtNtB1G_9debug_api15DebugApiBackendEENtCsih7Fp5FNncq_19reputation_registry18ReputationRegistry15append_responseCs5mzhWYvWCS1_13mx_8004_tests
FN:39,_RNvYINtNtNtCs41rs7w7JgRJ_13multiversx_sc13contract_base22universal_contract_obj20UniversalContractObjINtNtNtNtCsbvjT3dqqyJm_22multiversx_sc_scenario3api7impl_vh12vm_hooks_api10VMHooksApiNtNtB1G_9debug_api15DebugApiBackendEENtCsih7Fp5FNncq_19reputation_registry18ReputationRegistry15submit_feedbackCs5mzhWYvWCS1_13mx_8004_tests
FN:74,_RNvYINtNtNtCs41rs7w7JgRJ_13multiversx_sc13contract_base22universal_contract_obj20UniversalContractObjINtNtNtNtCsbvjT3dqqyJm_22multiversx_sc_scenario3api7impl_vh12vm_hooks_api10VMHooksApiNtNtB1G_9debug_api15DebugApiBackendEENtCsih7Fp5FNncq_19reputation_registry18ReputationRegistry18authorize_feedbackCs5mzhWYvWCS1_13mx_8004_tests
FN:28,_RNvYINtNtNtCs41rs7w7JgRJ_13multiversx_sc13contract_base22universal_contract_obj20UniversalContractObjINtNtNtNtCsbvjT3dqqyJm_22multiversx_sc_scenario3api7impl_vh12vm_hooks_api10VMHooksApiNtNtB1G_9debug_api15DebugApiBackendEENtCsih7Fp5FNncq_19reputation_registry18ReputationRegistry4initCs5mzhWYvWCS1_13mx_8004_tests
FNDA:50,_RNvYINtNtNtCs41rs7w7JgRJ_13multiversx_sc13contract_base22universal_contract_obj20UniversalContractObjINtNtNtNtCsbvjT3dqqyJm_22multiversx_sc_scenario3api7impl_vh12vm_hooks_api10VMHooksApiNtNtB1G_9debug_api15DebugApiBackendEENtCsih7Fp5FNncq_19reputation_registry16EndpointWrappers4callCs5mzhWYvWCS1_13mx_8004_tests
FNDA:2,_RNvYINtNtNtCs41rs7w7JgRJ_13multiversx_sc13contract_base22universal_contract_obj20UniversalContractObjINtNtNtNtCsbvjT3dqqyJm_22multiversx_sc_scenario3api7impl_vh12vm_hooks_api10VMHooksApiNtNtB1G_9debug_api15DebugApiBackendEENtCsih7Fp5FNncq_19reputation_registry18ReputationRegistry15append_responseCs5mzhWYvWCS1_13mx_8004_tests
FNDA:7,_RNvYINtNtNtCs41rs7w7JgRJ_13multiversx_sc13contract_base22universal_contract_obj20UniversalContractObjINtNtNtNtCsbvjT3dqqyJm_22multiversx_sc_scenario3api7impl_vh12vm_hooks_api10VMHooksApiNtNtB1G_9debug_api15DebugApiBackendEENtCsih7Fp5FNncq_19reputation_registry18ReputationRegistry15submit_feedbackCs5mzhWYvWCS1_13mx_8004_tests
FNDA:5,_RNvYINtNtNtCs41rs7w7JgRJ_13multiversx_sc13contract_base22universal_contract_obj20UniversalContractObjINtNtNtNtCsbvjT3dqqyJm_22multiversx_sc_scenario3api7impl_vh12vm_hooks_api10VMHooksApiNtNtB1G_9debug_api15DebugApiBackendEENtCsih7Fp5FNncq_19reputation_registry18ReputationRegistry18authorize_feedbackCs5mzhWYvWCS1_13mx_8004_tests
FNDA:50,_RNvYINtNtNtCs41rs7w7JgRJ_13multiversx_sc13contract_base22universal_contract_obj20UniversalContractObjINtNtNtNtCsbvjT3dqqyJm_22multiversx_sc_scenario3api7impl_vh12vm_hooks_api10VMHooksApiNtNtB1G_9debug_api15DebugApiBackendEENtCsih7Fp5FNncq_19reputation_registry18ReputationRegistry4initCs5mzhWYvWCS1_13mx_8004_tests
FNF:5
FNH:5
DA:15,50
DA:28,50
DA:29,50
DA:30,50
DA:31,50
DA:32,50
DA:39,7
DA:40,7
DA:41,7
DA:44,7
DA:45,7
DA:46,7
DA:48,7
DA:51,6
DA:54,5
DA:55,5
DA:60,4
DA:61,4
DA:65,3
DA:67,3
DA:68,3
DA:70,3
DA:74,5
DA:75,5
DA:76,5
DA:77,5
DA:78,5
DA:80,5
DA:81,5
DA:82,5
DA:84,4
DA:88,2
DA:89,2
DA:90,2
DA:91,2
DA:92,2
DA:94,2
DA:95,2
DA:96,2
DA:98,1
BRF:0
BRH:0
LF:40
LH:40
end_of_record
SF:/Users/mihaieremia/GitHub/mx-8004/reputation-registry/src/storage.rs
FN:6,_RNvYINtNtNtCs41rs7w7JgRJ_13multiversx_sc13contract_base22universal_contract_obj20UniversalContractObjINtNtNtNtCsbvjT3dqqyJm_22multiversx_sc_scenario3api7impl_vh12vm_hooks_api10VMHooksApiNtNtB1G_9debug_api15DebugApiBackendEENtNtCsih7Fp5FNncq_19reputation_registry7storage16EndpointWrappers4callCs5mzhWYvWCS1_13mx_8004_tests
FNDA:0,_RNvYINtNtNtCs41rs7w7JgRJ_13multiversx_sc13contract_base22universal_contract_obj20UniversalContractObjINtNtNtNtCsbvjT3dqqyJm_22multiversx_sc_scenario3api7impl_vh12vm_hooks_api10VMHooksApiNtNtB1G_9debug_api15DebugApiBackendEENtNtCsih7Fp5FNncq_19reputation_registry7storage16EndpointWrappers4callCs5mzhWYvWCS1_13mx_8004_tests
FNF:1
FNH:0
DA:6,0
BRF:0
BRH:0
LF:1
LH:0
end_of_record
SF:/Users/mihaieremia/GitHub/mx-8004/reputation-registry/src/utils.rs
FN:8,_RNvYINtNtNtCs41rs7w7JgRJ_13multiversx_sc13contract_base22universal_contract_obj20UniversalContractObjINtNtNtNtCsbvjT3dqqyJm_22multiversx_sc_scenario3api7impl_vh12vm_hooks_api10VMHooksApiNtNtB1G_9debug_api15DebugApiBackendEENtNtCsih7Fp5FNncq_19reputation_registry5utils11UtilsModule19calculate_new_scoreCs5mzhWYvWCS1_13mx_8004_tests
FN:23,_RNvYINtNtNtCs41rs7w7JgRJ_13multiversx_sc13contract_base22universal_contract_obj20UniversalContractObjINtNtNtNtCsbvjT3dqqyJm_22multiversx_sc_scenario3api7impl_vh12vm_hooks_api10VMHooksApiNtNtB1G_9debug_api15DebugApiBackendEENtNtCsih7Fp5FNncq_19reputation_registry5utils11UtilsModule19require_agent_ownerCs5mzhWYvWCS1_13mx_8004_tests
FN:3,_RNvYINtNtNtCs41rs7w7JgRJ_13multiversx_sc13contract_base22universal_contract_obj20UniversalContractObjINtNtNtNtCsbvjT3dqqyJm_22multiversx_sc_scenario3api7impl_vh12vm_hooks_api10VMHooksApiNtNtB1G_9debug_api15DebugApiBackendEENtNtCsih7Fp5FNncq_19reputation_registry5utils16EndpointWrappers4callCs5mzhWYvWCS1_13mx_8004_tests
FN:9,_RNCNvYINtNtNtCs41rs7w7JgRJ_13multiversx_sc13contract_base22universal_contract_obj20UniversalContractObjINtNtNtNtCsbvjT3dqqyJm_22multiversx_sc_scenario3api7impl_vh12vm_hooks_api10VMHooksApiNtNtB1I_9debug_api15DebugApiBackendEENtNtCsih7Fp5FNncq_19reputation_registry5utils11UtilsModule19calculate_new_score0Cs5mzhWYvWCS1_13mx_8004_tests
FNDA:3,_RNvYINtNtNtCs41rs7w7JgRJ_13multiversx_sc13contract_base22universal_contract_obj20UniversalContractObjINtNtNtNtCsbvjT3dqqyJm_22multiversx_sc_scenario3api7impl_vh12vm_hooks_api10VMHooksApiNtNtB1G_9debug_api15DebugApiBackendEENtNtCsih7Fp5FNncq_19reputation_registry5utils11UtilsModule19calculate_new_scoreCs5mzhWYvWCS1_13mx_8004_tests
FNDA:7,_RNvYINtNtNtCs41rs7w7JgRJ_13multiversx_sc13contract_base22universal_contract_obj20UniversalContractObjINtNtNtNtCsbvjT3dqqyJm_22multiversx_sc_scenario3api7impl_vh12vm_hooks_api10VMHooksApiNtNtB1G_9debug_api15DebugApiBackendEENtNtCsih7Fp5FNncq_19reputation_registry5utils11UtilsModule19require_agent_ownerCs5mzhWYvWCS1_13mx_8004_tests
FNDA:0,_RNvYINtNtNtCs41rs7w7JgRJ_13multiversx_sc13contract_base22universal_contract_obj20UniversalContractObjINtNtNtNtCsbvjT3dqqyJm_22multiversx_sc_scenario3api7impl_vh12vm_hooks_api10VMHooksApiNtNtB1G_9debug_api15DebugApiBackendEENtNtCsih7Fp5FNncq_19reputation_registry5utils16EndpointWrappers4callCs5mzhWYvWCS1_13mx_8004_tests
FNDA:3,_RNCNvYINtNtNtCs41rs7w7JgRJ_13multiversx_sc13contract_base22universal_contract_obj20UniversalContractObjINtNtNtNtCsbvjT3dqqyJm_22multiversx_sc_scenario3api7impl_vh12vm_hooks_api10VMHooksApiNtNtB1I_9debug_api15DebugApiBackendEENtNtCsih7Fp5FNncq_19reputation_registry5utils11UtilsModule19calculate_new_score0Cs5mzhWYvWCS1_13mx_8004_tests
FNF:4
FNH:3
DA:3,0
DA:8,3
DA:9,3
DA:10,3
DA:11,3
DA:12,3
DA:14,3
DA:15,3
DA:16,3
DA:17,3
DA:19,3
DA:23,7
DA:24,7
DA:25,7
BRF:0
BRH:0
LF:15
LH:14
end_of_record
SF:/Users/mihaieremia/GitHub/mx-8004/validation-registry/src/config.rs
FN:9,_RNvYINtNtNtCs41rs7w7JgRJ_13multiversx_sc13contract_base22universal_contract_obj20UniversalContractObjINtNtNtNtCsbvjT3dqqyJm_22multiversx_sc_scenario3api7impl_vh12vm_hooks_api10VMHooksApiNtNtB1G_9debug_api15DebugApiBackendEENtNtCs40KuYnaa4Iz_19validation_registry6config12ConfigModule29set_identity_registry_addressCs5mzhWYvWCS1_13mx_8004_tests
FN:3,_RNvYINtNtNtCs41rs7w7JgRJ_13multiversx_sc13contract_base22universal_contract_obj20UniversalContractObjINtNtNtNtCsbvjT3dqqyJm_22multiversx_sc_scenario3api7impl_vh12vm_hooks_api10VMHooksApiNtNtB1G_9debug_api15DebugApiBackendEENtNtCs40KuYnaa4Iz_19validation_registry6config16EndpointWrappers4callCs5mzhWYvWCS1_13mx_8004_tests
FNDA:1,_RNvYINtNtNtCs41rs7w7JgRJ_13multiversx_sc13contract_base22universal_contract_obj20UniversalContractObjINtNtNtNtCsbvjT3dqqyJm_22multiversx_sc_scenario3api7impl_vh12vm_hooks_api10VMHooksApiNtNtB1G_9debug_api15DebugApiBackendEENtNtCs40KuYnaa4Iz_19validation_registry6config12ConfigModule29set_identity_registry_addressCs5mzhWYvWCS1_13mx_8004_tests
FNDA:0,_RNvYINtNtNtCs41rs7w7JgRJ_13multiversx_sc13contract_base22universal_contract_obj20UniversalContractObjINtNtNtNtCsbvjT3dqqyJm_22multiversx_sc_scenario3api7impl_vh12vm_hooks_api10VMHooksApiNtNtB1G_9debug_api15DebugApiBackendEENtNtCs40KuYnaa4Iz_19validation_registry6config16EndpointWrappers4callCs5mzhWYvWCS1_13mx_8004_tests
FNF:2
FNH:1
DA:3,0
DA:9,1
DA:10,1
BRF:0
BRH:0
LF:3
LH:2
end_of_record
SF:/Users/mihaieremia/GitHub/mx-8004/validation-registry/src/events.rs
FN:5,_RNvYINtNtNtCs41rs7w7JgRJ_13multiversx_sc13contract_base22universal_contract_obj20UniversalContractObjINtNtNtNtCsbvjT3dqqyJm_22multiversx_sc_scenario3api7impl_vh12vm_hooks_api10VMHooksApiNtNtB1G_9debug_api15DebugApiBackendEENtNtCs40KuYnaa4Iz_19validation_registry6events16EndpointWrappers4callCs5mzhWYvWCS1_13mx_8004_tests
FNDA:0,_RNvYINtNtNtCs41rs7w7JgRJ_13multiversx_sc13contract_base22universal_contract_obj20UniversalContractObjINtNtNtNtCsbvjT3dqqyJm_22multiversx_sc_scenario3api7impl_vh12vm_hooks_api10VMHooksApiNtNtB1G_9debug_api15DebugApiBackendEENtNtCs40KuYnaa4Iz_19validation_registry6events16EndpointWrappers4callCs5mzhWYvWCS1_13mx_8004_tests
FNF:1
FNH:0
DA:5,0
BRF:0
BRH:0
LF:1
LH:0
end_of_record
SF:/Users/mihaieremia/GitHub/mx-8004/validation-registry/src/lib.rs
FN:96,_RNCNvYINtNtNtCs41rs7w7JgRJ_13multiversx_sc13contract_base22universal_contract_obj20UniversalContractObjINtNtNtNtCsbvjT3dqqyJm_22multiversx_sc_scenario3api7impl_vh12vm_hooks_api10VMHooksApiNtNtB1I_9debug_api15DebugApiBackendEENtCs40KuYnaa4Iz_19validation_registry18ValidationRegistry10verify_job0Cs5mzhWYvWCS1_13mx_8004_tests
FN:84,_RNCNvYINtNtNtCs41rs7w7JgRJ_13multiversx_sc13contract_base22universal_contract_obj20UniversalContractObjINtNtNtNtCsbvjT3dqqyJm_22multiversx_sc_scenario3api7impl_vh12vm_hooks_api10VMHooksApiNtNtB1I_9debug_api15DebugApiBackendEENtCs40KuYnaa4Iz_19validation_registry18ValidationRegistry12submit_proof0Cs5mzhWYvWCS1_13mx_8004_tests
FN:19,_RNvYINtNtNtCs41rs7w7JgRJ_13multiversx_sc13contract_base22universal_contract_obj20UniversalContractObjINtNtNtNtCsbvjT3dqqyJm_22multiversx_sc_scenario3api7impl_vh12vm_hooks_api10VMHooksApiNtNtB1G_9debug_api15DebugApiBackendEENtCs40KuYnaa4Iz_19validation_registry16EndpointWrappers4callCs5mzhWYvWCS1_13mx_8004_tests
FN:92,_RNvYINtNtNtCs41rs7w7JgRJ_13multiversx_sc13contract_base22universal_contract_obj20UniversalContractObjINtNtNtNtCsbvjT3dqqyJm_22multiversx_sc_scenario3api7impl_vh12vm_hooks_api10VMHooksApiNtNtB1G_9debug_api15DebugApiBackendEENtCs40KuYnaa4Iz_19validation_registry18ValidationRegistry10verify_jobCs5mzhWYvWCS1_13mx_8004_tests
FN:80,_RNvYINtNtNtCs41rs7w7JgRJ_13multiversx_sc13contract_base22universal_contract_obj20UniversalContractObjINtNtNtNtCsbvjT3dqqyJm_22multiversx_sc_scenario3api7impl_vh12vm_hooks_api10VMHooksApiNtNtB1G_9debug_api15DebugApiBackendEENtCs40KuYnaa4Iz_19validation_registry18ValidationRegistry12submit_proofCs5mzhWYvWCS1_13mx_8004_tests
FN:103,_RNvYINtNtNtCs41rs7w7JgRJ_13multiversx_sc13contract_base22universal_contract_obj20UniversalContractObjINtNtNtNtCsbvjT3dqqyJm_22multiversx_sc_scenario3api7impl_vh12vm_hooks_api10VMHooksApiNtNtB1G_9debug_api15DebugApiBackendEENtCs40KuYnaa4Iz_19validation_registry18ValidationRegistry14clean_old_jobsCs5mzhWYvWCS1_13mx_8004_tests
FN:28,_RNvYINtNtNtCs41rs7w7JgRJ_13multiversx_sc13contract_base22universal_contract_obj20UniversalContractObjINtNtNtNtCsbvjT3dqqyJm_22multiversx_sc_scenario3api7impl_vh12vm_hooks_api10VMHooksApiNtNtB1G_9debug_api15DebugApiBackendEENtCs40KuYnaa4Iz_19validation_registry18ValidationRegistry4initCs5mzhWYvWCS1_13mx_8004_tests
FN:38,_RNvYINtNtNtCs41rs7w7JgRJ_13multiversx_sc13contract_base22universal_contract_obj20UniversalContractObjINtNtNtNtCsbvjT3dqqyJm_22multiversx_sc_scenario3api7impl_vh12vm_hooks_api10VMHooksApiNtNtB1G_9debug_api15DebugApiBackendEENtCs40KuYnaa4Iz_19validation_registry18ValidationRegistry8init_jobCs5mzhWYvWCS1_13mx_8004_tests
FNDA:7,_RNCNvYINtNtNtCs41rs7w7JgRJ_13multiversx_sc13contract_base22universal_contract_obj20UniversalContractObjINtNtNtNtCsbvjT3dqqyJm_22multiversx_sc_scenario3api7impl_vh12vm_hooks_api10VMHooksApiNtNtB1I_9debug_api15DebugApiBackendEENtCs40KuYnaa4Iz_19validation_registry18ValidationRegistry10verify_job0Cs5mzhWYvWCS1_13mx_8004_tests
FNDA:9,_RNCNvYINtNtNtCs41rs7w7JgRJ_13multiversx_sc13contract_base22universal_contract_obj20UniversalContractObjINtNtNtNtCsbvjT3dqqyJm_22multiversx_sc_scenario3api7impl_vh12vm_hooks_api10VMHooksApiNtNtB1I_9debug_api15DebugApiBackendEENtCs40KuYnaa4Iz_19validation_registry18ValidationRegistry12submit_proof0Cs5mzhWYvWCS1_13mx_8004_tests
FNDA:50,_RNvYINtNtNtCs41rs7w7JgRJ_13multiversx_sc13contract_base22universal_contract_obj20UniversalContractObjINtNtNtNtCsbvjT3dqqyJm_22multiversx_sc_scenario3api7impl_vh12vm_hooks_api10VMHooksApiNtNtB1G_9debug_api15DebugApiBackendEENtCs40KuYnaa4Iz_19validation_registry16EndpointWrappers4callCs5mzhWYvWCS1_13mx_8004_tests
FNDA:7,_RNvYINtNtNtCs41rs7w7JgRJ_13multiversx_sc13contract_base22universal_contract_obj20UniversalContractObjINtNtNtNtCsbvjT3dqqyJm_22multiversx_sc_scenario3api7impl_vh12vm_hooks_api10VMHooksApiNtNtB1G_9debug_api15DebugApiBackendEENtCs40KuYnaa4Iz_19validation_registry18ValidationRegistry10verify_jobCs5mzhWYvWCS1_13mx_8004_tests
FNDA:10,_RNvYINtNtNtCs41rs7w7JgRJ_13multiversx_sc13contract_base22universal_contract_obj20UniversalContractObjINtNtNtNtCsbvjT3dqqyJm_22multiversx_sc_scenario3api7impl_vh12vm_hooks_api10VMHooksApiNtNtB1G_9debug_api15DebugApiBackendEENtCs40KuYnaa4Iz_19validation_registry18ValidationRegistry12submit_proofCs5mzhWYvWCS1_13mx_8004_tests
FNDA:2,_RNvYINtNtNtCs41rs7w7JgRJ_13multiversx_sc13contract_base22universal_contract_obj20UniversalContractObjINtNtNtNtCsbvjT3dqqyJm_22multiversx_sc_scenario3api7impl_vh12vm_hooks_api10VMHooksApiNtNtB1G_9debug_api15DebugApiBackendEENtCs40KuYnaa4Iz_19validation_registry18ValidationRegistry14clean_old_jobsCs5mzhWYvWCS1_13mx_8004_tests
FNDA:50,_RNvYINtNtNtCs41rs7w7JgRJ_13multiversx_sc13contract_base22universal_contract_obj20UniversalContractObjINtNtNtNtCsbvjT3dqqyJm_22multiversx_sc_scenario3api7impl_vh12vm_hooks_api10VMHooksApiNtNtB1G_9debug_api15DebugApiBackendEENtCs40KuYnaa4Iz_19validation_registry18ValidationRegistry4initCs5mzhWYvWCS1_13mx_8004_tests
FNDA:19,_RNvYINtNtNtCs41rs7w7JgRJ_13multiversx_sc13contract_base22universal_contract_obj20UniversalContractObjINtNtNtNtCsbvjT3dqqyJm_22multiversx_sc_scenario3api7impl_vh12vm_hooks_api10VMHooksApiNtNtB1G_9debug_api15DebugApiBackendEENtCs40KuYnaa4Iz_19validation_registry18ValidationRegistry8init_jobCs5mzhWYvWCS1_13mx_8004_tests
FNF:8
FNH:8
DA:19,50
DA:28,50
DA:29,50
DA:30,50
DA:38,19
DA:39,19
DA:40,19
DA:42,18
DA:43,18
DA:44,18
DA:45,18
DA:46,18
DA:47,18
DA:48,18
DA:49,18
DA:52,18
DA:53,4
DA:54,4
DA:55,4
DA:56,4
DA:58,4
DA:60,4
DA:61,4
DA:63,4
DA:64,4
DA:65,3
DA:69,3
DA:70,3
DA:74,2
DA:75,0
DA:76,14
DA:80,10
DA:81,10
DA:82,10
DA:84,9
DA:85,9
DA:86,9
DA:87,9
DA:92,7
DA:93,7
DA:94,7
DA:96,7
DA:97,7
DA:98,7
DA:99,7
DA:103,2
DA:104,2
DA:105,4
DA:106,2
DA:107,2
DA:108,0
DA:109,2
DA:110,2
DA:111,2
DA:112,1
DA:113,1
BRF:0
BRH:0
LF:58
LH:56
end_of_record
SF:/Users/mihaieremia/GitHub/mx-8004/validation-registry/src/storage.rs
FN:5,_RNvYINtNtNtCs41rs7w7JgRJ_13multiversx_sc13contract_base22universal_contract_obj20UniversalContractObjINtNtNtNtCsbvjT3dqqyJm_22multiversx_sc_scenario3api7impl_vh12vm_hooks_api10VMHooksApiNtNtB1G_9debug_api15DebugApiBackendEENtNtCs40KuYnaa4Iz_19validation_registry7storage16EndpointWrappers4callCs5mzhWYvWCS1_13mx_8004_tests
FNDA:0,_RNvYINtNtNtCs41rs7w7JgRJ_13multiversx_sc13contract_base22universal_contract_obj20UniversalContractObjINtNtNtNtCsbvjT3dqqyJm_22multiversx_sc_scenario3api7impl_vh12vm_hooks_api10VMHooksApiNtNtB1G_9debug_api15DebugApiBackendEENtNtCs40KuYnaa4Iz_19validation_registry7storage16EndpointWrappers4callCs5mzhWYvWCS1_13mx_8004_tests
FNF:1
FNH:0
DA:5,0
BRF:0
BRH:0
LF:1
LH:0
end_of_record
SF:/Users/mihaieremia/GitHub/mx-8004/validation-registry/src/views.rs
FN:17,_RNvYINtNtNtCs41rs7w7JgRJ_13multiversx_sc13contract_base22universal_contract_obj20UniversalContractObjINtNtNtNtCsbvjT3dqqyJm_22multiversx_sc_scenario3api7impl_vh12vm_hooks_api10VMHooksApiNtNtB1G_9debug_api15DebugApiBackendEENtNtCs40KuYnaa4Iz_19validation_registry5views11ViewsModule12get_job_dataCs5mzhWYvWCS1_13mx_8004_tests
FN:11,_RNvYINtNtNtCs41rs7w7JgRJ_13multiversx_sc13contract_base22universal_contract_obj20UniversalContractObjINtNtNtNtCsbvjT3dqqyJm_22multiversx_sc_scenario3api7impl_vh12vm_hooks_api10VMHooksApiNtNtB1G_9debug_api15DebugApiBackendEENtNtCs40KuYnaa4Iz_19validation_registry5views11ViewsModule15is_job_verifiedCs5mzhWYvWCS1_13mx_8004_tests
FN:6,_RNvYINtNtNtCs41rs7w7JgRJ_13multiversx_sc13contract_base22universal_contract_obj20UniversalContractObjINtNtNtNtCsbvjT3dqqyJm_22multiversx_sc_scenario3api7impl_vh12vm_hooks_api10VMHooksApiNtNtB1G_9debug_api15DebugApiBackendEENtNtCs40KuYnaa4Iz_19validation_registry5views16EndpointWrappers4callCs5mzhWYvWCS1_13mx_8004_tests
FNDA:7,_RNvYINtNtNtCs41rs7w7JgRJ_13multiversx_sc13contract_base22universal_contract_obj20UniversalContractObjINtNtNtNtCsbvjT3dqqyJm_22multiversx_sc_scenario3api7impl_vh12vm_hooks_api10VMHooksApiNtNtB1G_9debug_api15DebugApiBackendEENtNtCs40KuYnaa4Iz_19validation_registry5views11ViewsModule12get_job_dataCs5mzhWYvWCS1_13mx_8004_tests
FNDA:2,_RNvYINtNtNtCs41rs7w7JgRJ_13multiversx_sc13contract_base22universal_contract_obj20UniversalContractObjINtNtNtNtCsbvjT3dqqyJm_22multiversx_sc_scenario3api7impl_vh12vm_hooks_api10VMHooksApiNtNtB1G_9debug_api15DebugApiBackendEENtNtCs40KuYnaa4Iz_19validation_registry5views11ViewsModule15is_job_verifiedCs5mzhWYvWCS1_13mx_8004_tests
FNDA:0,_RNvYINtNtNtCs41rs7w7JgRJ_13multiversx_sc13contract_base22universal_contract_obj20UniversalContractObjINtNtNtNtCsbvjT3dqqyJm_22multiversx_sc_scenario3api7impl_vh12vm_hooks_api10VMHooksApiNtNtB1G_9debug_api15DebugApiBackendEENtNtCs40KuYnaa4Iz_19validation_registry5views16EndpointWrappers4callCs5mzhWYvWCS1_13mx_8004_tests
FNF:3
FNH:2
DA:6,0
DA:11,2
DA:12,2
DA:13,2
DA:17,7
DA:18,7
DA:19,7
DA:20,1
DA:22,6
BRF:0
BRH:0
LF:9
LH:8
end_of_record